target datalayout = "e-m:e-p270:32:32-p271:32:32-p272:64:64-i64:64-i128:128-f80:128-n8:16:32:64-S128"
target triple = "x86_64-pc-linux-gnu"

%struct.gss_OID_desc_struct = type { i32, ptr }

; Function Attrs: nounwind uwtable
define hidden i32 @sameMech(ptr noundef %0, ptr noundef %1) #0 {
  %3 = alloca ptr, align 8
  %4 = alloca ptr, align 8
  %5 = alloca i32, align 4
  store ptr %0, ptr %3, align 8
  store ptr %1, ptr %4, align 8
  store i32 0, ptr %5, align 4
  %6 = load ptr, ptr %3, align 8
  %7 = getelementptr inbounds %struct.gss_OID_desc_struct, ptr %6, i32 0, i32 0
  %8 = load i32, ptr %7, align 8
  %9 = load ptr, ptr %4, align 8
  %10 = getelementptr inbounds %struct.gss_OID_desc_struct, ptr %9, i32 0, i32 0
  %11 = load i32, ptr %10, align 8
  %12 = icmp eq i32 %8, %11
  br i1 %12, label %13, label %27

13:                                               ; preds = %2
  %14 = load ptr, ptr %3, align 8
  %15 = getelementptr inbounds %struct.gss_OID_desc_struct, ptr %14, i32 0, i32 1
  %16 = load ptr, ptr %15, align 8
  %17 = load ptr, ptr %4, align 8
  %18 = getelementptr inbounds %struct.gss_OID_desc_struct, ptr %17, i32 0, i32 1
  %19 = load ptr, ptr %18, align 8
  %20 = load ptr, ptr %3, align 8
  %21 = getelementptr inbounds %struct.gss_OID_desc_struct, ptr %20, i32 0, i32 0
  %22 = load i32, ptr %21, align 8
  %23 = zext i32 %22 to i64
  %24 = call i32 @memcmp(ptr noundef %16, ptr noundef %19, i64 noundef %23) #7
  %25 = icmp eq i32 %24, 0
  %26 = zext i1 %25 to i32
  store i32 %26, ptr %5, align 4
  br label %27

27:                                               ; preds = %13, %2
  %28 = load i32, ptr %5, align 4
  ret i32 %28
}