; Function Attrs: mustprogress nofree nounwind willreturn memory(read, inaccessiblemem: none) uwtable
define hidden range(i32 0, 2) i32 @sameMech(ptr nocapture noundef readonly %0, ptr nocapture noundef readonly %1) local_unnamed_addr #6 {
  %3 = load i32, ptr %0, align 8
  %4 = load i32, ptr %1, align 8
  %5 = icmp eq i32 %3, %4
  br i1 %5, label %6, label %14

6:                                                ; preds = %2
  %7 = getelementptr inbounds i8, ptr %0, i64 8
  %8 = load ptr, ptr %7, align 8
  %9 = getelementptr inbounds i8, ptr %1, i64 8
  %10 = load ptr, ptr %9, align 8
  %11 = zext i32 %3 to i64
  %bcmp = tail call i32 @bcmp(ptr %8, ptr %10, i64 %11)
  %12 = icmp eq i32 %bcmp, 0
  %13 = zext i1 %12 to i32
  br label %14

14:                                               ; preds = %6, %2
  %.0 = phi i32 [ %13, %6 ], [ 0, %2 ]
  ret i32 %.0
}